Archive member included to satisfy reference by file (symbol)

/opt/riscv-gcc/bin/../lib/gcc/riscv-none-elf/15.2.0/rv32i/ilp32/libgcc.a(div.o)
                              /tmp/ccmOmjeE.o (__divsi3)

There are no discarded input sections

Memory Configuration

Name             Origin             Length             Attributes
FLASH            0x00100000         0x00400000         xr
RAM              0x00000000         0x00003000         xrw
*default*        0x00000000         0xffffffff

Linker script and memory map


.text           0x00000000     0x10c0
                0x00000000                        . = ALIGN (0x4)
 *(.text)
 .text          0x00000000      0x198 /tmp/ccv4Kgc6.o
                0x00000100                flashio_worker_begin
                0x00000198                flashio_worker_end
 .text          0x00000198      0x1cc /tmp/ccCOSOXQ.o
                0x00000198                putchar
                0x000001c4                print
                0x00000208                getchar_prompt
                0x000002f8                getchar
 .text          0x00000364      0x420 /tmp/ccmOmjeE.o
                0x00000364                time
                0x0000036c                insn
                0x00000374                malloc
                0x000003a0                printf
                0x00000538                memcpy
                0x000005dc                strcpy
                0x0000068c                strcmp
 .text          0x00000784      0x140 /tmp/ccoAUR5F.o
                0x00000784                Proc_6
                0x000007d8                Proc_7
                0x000007e8                Proc_8
                0x00000858                Func_1
                0x00000874                Func_2
                0x000008b8                Func_3
 .text          0x000008c4      0x574 /tmp/cc8XRt7o.o
                0x000008c4                Proc_1
                0x00000a4c                run_dhrystone
                0x00000d94                Proc_2
                0x00000dc4                Proc_3
                0x00000df0                Proc_4
                0x00000e20                Proc_5
 .text          0x00000e38       0xb4 /opt/riscv-gcc/bin/../lib/gcc/riscv-none-elf/15.2.0/rv32i/ilp32/libgcc.a(div.o)
                0x00000e38                __divsi3
                0x00000e40                __hidden___udivsi3
                0x00000e40                __udivsi3
                0x00000e88                __umodsi3
                0x00000ebc                __modsi3
 *(.text*)
 .text.startup  0x00000eec       0xd4 /tmp/ccCOSOXQ.o
                0x00000eec                main
 *(.rodata)
 *(.rodata*)
 .rodata.str1.4
                0x00000fc0       0xfe /tmp/ccCOSOXQ.o
                                 0x15 (size before relaxing)
 .rodata.str1.4
                0x000010be        0x0 /tmp/cc8XRt7o.o
                                 0xe6 (size before relaxing)
 *(.srodata)
 *(.srodata*)
                0x000010c0                        . = ALIGN (0x4)
 *fill*         0x000010be        0x2 
                0x000010c0                        _etext = .
                0x000010c0                        _sidata = _etext

.rela.dyn       0x000010c0        0x0
 .rela.text     0x000010c0        0x0 /tmp/ccv4Kgc6.o

.data           0x000010c0        0x0
                0x000010c0                        . = ALIGN (0x4)
                0x000010c0                        _sdata = .
                0x000010c0                        _ram_start = .
                0x000010c0                        . = ALIGN (0x4)
 *(.data)
 .data          0x000010c0        0x0 /tmp/ccv4Kgc6.o
 .data          0x000010c0        0x0 /tmp/ccCOSOXQ.o
 .data          0x000010c0        0x0 /tmp/ccmOmjeE.o
 .data          0x000010c0        0x0 /tmp/ccoAUR5F.o
 .data          0x000010c0        0x0 /tmp/cc8XRt7o.o
 .data          0x000010c0        0x0 /opt/riscv-gcc/bin/../lib/gcc/riscv-none-elf/15.2.0/rv32i/ilp32/libgcc.a(div.o)
 *(.data*)
 *(.sdata)
 *(.sdata*)
                0x000010c0                        . = ALIGN (0x4)
                0x000010c0                        _edata = .

.bss            0x000010c0     0x1c70
                0x000010c0                        . = ALIGN (0x4)
                0x000010c0                        _sbss = .
 *(.bss)
 .bss           0x000010c0        0x0 /tmp/ccv4Kgc6.o
 .bss           0x000010c0        0x0 /tmp/ccCOSOXQ.o
 .bss           0x000010c0      0x400 /tmp/ccmOmjeE.o
                0x000010c0                heap_memory
 .bss           0x000014c0        0x0 /tmp/ccoAUR5F.o
 .bss           0x000014c0     0x1838 /tmp/cc8XRt7o.o
                0x000014c0                Arr_1_Glob
                0x00001588                Arr_2_Glob
 .bss           0x00002cf8        0x0 /opt/riscv-gcc/bin/../lib/gcc/riscv-none-elf/15.2.0/rv32i/ilp32/libgcc.a(div.o)
 *(.bss*)
 *(.sbss)
 .sbss          0x00002cf8        0x4 /tmp/ccmOmjeE.o
                0x00002cf8                heap_memory_used
 .sbss          0x00002cfc       0x34 /tmp/cc8XRt7o.o
                0x00002cfc                Dhrystones_Per_Second
                0x00002d00                Microseconds
                0x00002d04                User_Insn
                0x00002d08                End_Insn
                0x00002d0c                Begin_Insn
                0x00002d10                User_Time
                0x00002d14                End_Time
                0x00002d18                Begin_Time
                0x00002d1c                Ch_2_Glob
                0x00002d1d                Ch_1_Glob
                0x00002d20                Bool_Glob
                0x00002d24                Int_Glob
                0x00002d28                Next_Ptr_Glob
                0x00002d2c                Ptr_Glob
 *(.sbss*)
 *(COMMON)
                0x00002d30                        . = ALIGN (0x4)
                0x00002d30                        _ebss = .

.heap           0x00002d30        0x0
                0x00002d30                        . = ALIGN (0x4)
                0x00002d30                        _heap_start = .
LOAD /tmp/ccv4Kgc6.o
LOAD /tmp/ccCOSOXQ.o
LOAD /tmp/ccmOmjeE.o
LOAD /tmp/ccoAUR5F.o
LOAD /tmp/cc8XRt7o.o
LOAD /opt/riscv-gcc/bin/../lib/gcc/riscv-none-elf/15.2.0/rv32i/ilp32/libgcc.a
OUTPUT(build/firmware/icebreaker_fw.elf elf32-littleriscv)

.riscv.attributes
                0x00000000       0x1c
 .riscv.attributes
                0x00000000       0x1a /tmp/ccv4Kgc6.o
 .riscv.attributes
                0x0000001a       0x1c /tmp/ccCOSOXQ.o
 .riscv.attributes
                0x00000036       0x1c /tmp/ccmOmjeE.o
 .riscv.attributes
                0x00000052       0x1c /tmp/ccoAUR5F.o
 .riscv.attributes
                0x0000006e       0x1c /tmp/cc8XRt7o.o
 .riscv.attributes
                0x0000008a       0x1a /opt/riscv-gcc/bin/../lib/gcc/riscv-none-elf/15.2.0/rv32i/ilp32/libgcc.a(div.o)

.comment        0x00000000       0x33
 .comment       0x00000000       0x33 /tmp/ccCOSOXQ.o
                                 0x34 (size before relaxing)
 .comment       0x00000033        0x0 /tmp/ccmOmjeE.o
                                 0x34 (size before relaxing)
 .comment       0x00000033        0x0 /tmp/ccoAUR5F.o
                                 0x34 (size before relaxing)
 .comment       0x00000033        0x0 /tmp/cc8XRt7o.o
                                 0x34 (size before relaxing)

.note.GNU-stack
                0x00000000        0x0
 .note.GNU-stack
                0x00000000        0x0 /tmp/ccCOSOXQ.o
 .note.GNU-stack
                0x00000000        0x0 /tmp/ccmOmjeE.o
 .note.GNU-stack
                0x00000000        0x0 /tmp/ccoAUR5F.o
 .note.GNU-stack
                0x00000000        0x0 /tmp/cc8XRt7o.o
