
There are no discarded input sections

Memory Configuration

Name             Origin             Length             Attributes
FLASH            0x00100000         0x00400000         xr
RAM              0x00000000         0x00003000         xrw
*default*        0x00000000         0xffffffff

Linker script and memory map


.text           0x00000000      0xbf0
                0x00000000                        . = ALIGN (0x4)
 *(.text)
 .text          0x00000000      0x128 /tmp/ccgk1jtb.o
                0x000000a8                flashio_worker_begin
                0x00000128                flashio_worker_end
 .text          0x00000128      0x156 /tmp/ccacvVpG.o
                0x00000128                putchar
                0x00000146                print
                0x00000172                getchar_prompt
                0x00000220                getchar
 .text          0x0000027e      0x308 /tmp/ccDvm74G.o
                0x0000027e                time
                0x00000284                insn
                0x0000028a                malloc
                0x000002ae                printf
                0x000003c2                memcpy
                0x00000440                strcpy
                0x000004c4                strcmp
 .text          0x00000586       0xca /tmp/cccLdGVM.o
                0x00000586                Proc_6
                0x000005be                Proc_7
                0x000005c6                Proc_8
                0x0000060a                Func_1
                0x0000061c                Func_2
                0x00000648                Func_3
 .text          0x00000650      0x3f0 /tmp/ccLfDgY3.o
                0x00000650                Proc_1
                0x00000756                run_dhrystone
                0x000009cc                Proc_2
                0x000009ec                Proc_3
                0x00000a08                Proc_4
                0x00000a2e                Proc_5
 *(.text*)
 .text.startup  0x00000a40       0xb0 /tmp/ccacvVpG.o
                0x00000a40                main
 *(.rodata)
 *(.rodata*)
 *fill*         0x00000af0        0x0 
 .rodata.str1.4
                0x00000af0       0xfe /tmp/ccacvVpG.o
                                 0x15 (size before relaxing)
 .rodata.str1.4
                0x00000bee        0x0 /tmp/ccLfDgY3.o
                                 0xe6 (size before relaxing)
 *(.srodata)
 *(.srodata*)
                0x00000bf0                        . = ALIGN (0x4)
 *fill*         0x00000bee        0x2 
                0x00000bf0                        _etext = .
                0x00000bf0                        _sidata = _etext

.rela.dyn       0x00000bf0        0x0
 .rela.text     0x00000bf0        0x0 /tmp/ccgk1jtb.o

.data           0x00000bf0        0x0
                0x00000bf0                        . = ALIGN (0x4)
                0x00000bf0                        _sdata = .
                0x00000bf0                        _ram_start = .
                0x00000bf0                        . = ALIGN (0x4)
 *(.data)
 .data          0x00000bf0        0x0 /tmp/ccgk1jtb.o
 .data          0x00000bf0        0x0 /tmp/ccacvVpG.o
 .data          0x00000bf0        0x0 /tmp/ccDvm74G.o
 .data          0x00000bf0        0x0 /tmp/cccLdGVM.o
 .data          0x00000bf0        0x0 /tmp/ccLfDgY3.o
 *(.data*)
 *(.sdata)
 *(.sdata*)
                0x00000bf0                        . = ALIGN (0x4)
                0x00000bf0                        _edata = .

.bss            0x00000bf0     0x1c70
                0x00000bf0                        . = ALIGN (0x4)
                0x00000bf0                        _sbss = .
 *(.bss)
 .bss           0x00000bf0        0x0 /tmp/ccgk1jtb.o
 .bss           0x00000bf0        0x0 /tmp/ccacvVpG.o
 .bss           0x00000bf0      0x400 /tmp/ccDvm74G.o
                0x00000bf0                heap_memory
 .bss           0x00000ff0        0x0 /tmp/cccLdGVM.o
 .bss           0x00000ff0     0x1838 /tmp/ccLfDgY3.o
                0x00000ff0                Arr_1_Glob
                0x000010b8                Arr_2_Glob
 *(.bss*)
 *(.sbss)
 .sbss          0x00002828        0x4 /tmp/ccDvm74G.o
                0x00002828                heap_memory_used
 .sbss          0x0000282c       0x34 /tmp/ccLfDgY3.o
                0x0000282c                Dhrystones_Per_Second
                0x00002830                Microseconds
                0x00002834                User_Insn
                0x00002838                End_Insn
                0x0000283c                Begin_Insn
                0x00002840                User_Time
                0x00002844                End_Time
                0x00002848                Begin_Time
                0x0000284c                Ch_2_Glob
                0x0000284d                Ch_1_Glob
                0x00002850                Bool_Glob
                0x00002854                Int_Glob
                0x00002858                Next_Ptr_Glob
                0x0000285c                Ptr_Glob
 *(.sbss*)
 *(COMMON)
                0x00002860                        . = ALIGN (0x4)
                0x00002860                        _ebss = .

.heap           0x00002860        0x0
                0x00002860                        . = ALIGN (0x4)
                0x00002860                        _heap_start = .
LOAD /tmp/ccgk1jtb.o
LOAD /tmp/ccacvVpG.o
LOAD /tmp/ccDvm74G.o
LOAD /tmp/cccLdGVM.o
LOAD /tmp/ccLfDgY3.o
LOAD /opt/riscv-gcc/bin/../lib/gcc/riscv-none-elf/15.2.0/rv32imc/ilp32/libgcc.a
OUTPUT(build/firmware/icebreaker_fw.elf elf32-littleriscv)

.riscv.attributes
                0x00000000       0x36
 .riscv.attributes
                0x00000000       0x34 /tmp/ccgk1jtb.o
 .riscv.attributes
                0x00000034       0x36 /tmp/ccacvVpG.o
 .riscv.attributes
                0x0000006a       0x36 /tmp/ccDvm74G.o
 .riscv.attributes
                0x000000a0       0x36 /tmp/cccLdGVM.o
 .riscv.attributes
                0x000000d6       0x36 /tmp/ccLfDgY3.o

.comment        0x00000000       0x33
 .comment       0x00000000       0x33 /tmp/ccacvVpG.o
                                 0x34 (size before relaxing)
 .comment       0x00000033        0x0 /tmp/ccDvm74G.o
                                 0x34 (size before relaxing)
 .comment       0x00000033        0x0 /tmp/cccLdGVM.o
                                 0x34 (size before relaxing)
 .comment       0x00000033        0x0 /tmp/ccLfDgY3.o
                                 0x34 (size before relaxing)

.note.GNU-stack
                0x00000000        0x0
 .note.GNU-stack
                0x00000000        0x0 /tmp/ccacvVpG.o
 .note.GNU-stack
                0x00000000        0x0 /tmp/ccDvm74G.o
 .note.GNU-stack
                0x00000000        0x0 /tmp/cccLdGVM.o
 .note.GNU-stack
                0x00000000        0x0 /tmp/ccLfDgY3.o
