
There are no discarded input sections

Memory Configuration

Name             Origin             Length             Attributes
FLASH            0x00100000         0x00400000         xr
RAM              0x00000000         0x00003000         xrw
*default*        0x00000000         0xffffffff

Linker script and memory map


.text           0x00000000     0x1034
                0x00000000                        . = ALIGN (0x4)
 *(.text)
 .text          0x00000000      0x198 /tmp/ccf6PLWj.o
                0x00000100                flashio_worker_begin
                0x00000198                flashio_worker_end
 .text          0x00000198      0x1cc /tmp/cc22EELB.o
                0x00000198                putchar
                0x000001c4                print
                0x00000208                getchar_prompt
                0x000002f8                getchar
 .text          0x00000364      0x430 /tmp/ccOUYR7m.o
                0x00000364                time
                0x0000036c                insn
                0x00000374                malloc
                0x000003a0                printf
                0x00000548                memcpy
                0x000005ec                strcpy
                0x0000069c                strcmp
 .text          0x00000794      0x134 /tmp/ccfAKIi9.o
                0x00000794                Proc_6
                0x000007e8                Proc_7
                0x000007f8                Proc_8
                0x0000085c                Func_1
                0x00000878                Func_2
                0x000008bc                Func_3
 .text          0x000008c8      0x598 /tmp/cclarb62.o
                0x000008c8                Proc_1
                0x00000a50                run_dhrystone
                0x00000dbc                Proc_2
                0x00000dec                Proc_3
                0x00000e18                Proc_4
                0x00000e48                Proc_5
 *(.text*)
 .text.startup  0x00000e60       0xd4 /tmp/cc22EELB.o
                0x00000e60                main
 *(.rodata)
 *(.rodata*)
 .rodata.str1.4
                0x00000f34       0xfe /tmp/cc22EELB.o
                                 0x15 (size before relaxing)
 .rodata.str1.4
                0x00001032        0x0 /tmp/cclarb62.o
                                 0xe6 (size before relaxing)
 *(.srodata)
 *(.srodata*)
                0x00001034                        . = ALIGN (0x4)
 *fill*         0x00001032        0x2 
                0x00001034                        _etext = .
                0x00001034                        _sidata = _etext

.rela.dyn       0x00001034        0x0
 .rela.text     0x00001034        0x0 /tmp/ccf6PLWj.o

.data           0x00001034        0x0
                0x00001034                        . = ALIGN (0x4)
                0x00001034                        _sdata = .
                0x00001034                        _ram_start = .
                0x00001034                        . = ALIGN (0x4)
 *(.data)
 .data          0x00001034        0x0 /tmp/ccf6PLWj.o
 .data          0x00001034        0x0 /tmp/cc22EELB.o
 .data          0x00001034        0x0 /tmp/ccOUYR7m.o
 .data          0x00001034        0x0 /tmp/ccfAKIi9.o
 .data          0x00001034        0x0 /tmp/cclarb62.o
 *(.data*)
 *(.sdata)
 *(.sdata*)
                0x00001034                        . = ALIGN (0x4)
                0x00001034                        _edata = .

.bss            0x00001034     0x1c70
                0x00001034                        . = ALIGN (0x4)
                0x00001034                        _sbss = .
 *(.bss)
 .bss           0x00001034        0x0 /tmp/ccf6PLWj.o
 .bss           0x00001034        0x0 /tmp/cc22EELB.o
 .bss           0x00001034      0x400 /tmp/ccOUYR7m.o
                0x00001034                heap_memory
 .bss           0x00001434        0x0 /tmp/ccfAKIi9.o
 .bss           0x00001434     0x1838 /tmp/cclarb62.o
                0x00001434                Arr_1_Glob
                0x000014fc                Arr_2_Glob
 *(.bss*)
 *(.sbss)
 .sbss          0x00002c6c        0x4 /tmp/ccOUYR7m.o
                0x00002c6c                heap_memory_used
 .sbss          0x00002c70       0x34 /tmp/cclarb62.o
                0x00002c70                Dhrystones_Per_Second
                0x00002c74                Microseconds
                0x00002c78                User_Insn
                0x00002c7c                End_Insn
                0x00002c80                Begin_Insn
                0x00002c84                User_Time
                0x00002c88                End_Time
                0x00002c8c                Begin_Time
                0x00002c90                Ch_2_Glob
                0x00002c91                Ch_1_Glob
                0x00002c94                Bool_Glob
                0x00002c98                Int_Glob
                0x00002c9c                Next_Ptr_Glob
                0x00002ca0                Ptr_Glob
 *(.sbss*)
 *(COMMON)
                0x00002ca4                        . = ALIGN (0x4)
                0x00002ca4                        _ebss = .

.heap           0x00002ca4        0x0
                0x00002ca4                        . = ALIGN (0x4)
                0x00002ca4                        _heap_start = .
LOAD /tmp/ccf6PLWj.o
LOAD /tmp/cc22EELB.o
LOAD /tmp/ccOUYR7m.o
LOAD /tmp/ccfAKIi9.o
LOAD /tmp/cclarb62.o
LOAD /opt/riscv-gcc/bin/../lib/gcc/riscv-none-elf/15.2.0/rv32im/ilp32/libgcc.a
OUTPUT(build/firmware/icebreaker_fw.elf elf32-littleriscv)

.riscv.attributes
                0x00000000       0x2a
 .riscv.attributes
                0x00000000       0x28 /tmp/ccf6PLWj.o
 .riscv.attributes
                0x00000028       0x2a /tmp/cc22EELB.o
 .riscv.attributes
                0x00000052       0x2a /tmp/ccOUYR7m.o
 .riscv.attributes
                0x0000007c       0x2a /tmp/ccfAKIi9.o
 .riscv.attributes
                0x000000a6       0x2a /tmp/cclarb62.o

.comment        0x00000000       0x33
 .comment       0x00000000       0x33 /tmp/cc22EELB.o
                                 0x34 (size before relaxing)
 .comment       0x00000033        0x0 /tmp/ccOUYR7m.o
                                 0x34 (size before relaxing)
 .comment       0x00000033        0x0 /tmp/ccfAKIi9.o
                                 0x34 (size before relaxing)
 .comment       0x00000033        0x0 /tmp/cclarb62.o
                                 0x34 (size before relaxing)

.note.GNU-stack
                0x00000000        0x0
 .note.GNU-stack
                0x00000000        0x0 /tmp/cc22EELB.o
 .note.GNU-stack
                0x00000000        0x0 /tmp/ccOUYR7m.o
 .note.GNU-stack
                0x00000000        0x0 /tmp/ccfAKIi9.o
 .note.GNU-stack
                0x00000000        0x0 /tmp/cclarb62.o
